target datalayout = "e-m:e-p270:32:32-p271:32:32-p272:64:64-i64:64-i128:128-f80:128-n8:16:32:64-S128"
target triple = "x86_64-pc-linux-gnu"

%struct.SDL_EventWatchList = type { ptr, %struct.SDL_EventWatcher, ptr, i32, i8, i8 }
%struct.SDL_EventWatcher = type { ptr, ptr, i8 }

@SDL_event_watchers = internal global %struct.SDL_EventWatchList zeroinitializer, align 8

; Function Attrs: nounwind uwtable
define hidden zeroext i1 @SDL_GetEventFilter_REAL(ptr noundef %0, ptr noundef %1) #0 {
  %3 = alloca ptr, align 8
  %4 = alloca ptr, align 8
  %5 = alloca %struct.SDL_EventWatcher, align 8
  store ptr %0, ptr %3, align 8
  store ptr %1, ptr %4, align 8
  call void @llvm.lifetime.start.p0(i64 24, ptr %5) #5
  %6 = load ptr, ptr @SDL_event_watchers, align 8
  call void @SDL_LockMutex_REAL(ptr noundef %6)
  call void @llvm.memcpy.p0.p0.i64(ptr align 8 %5, ptr align 8 getelementptr inbounds nuw (%struct.SDL_EventWatchList, ptr @SDL_event_watchers, i32 0, i32 1), i64 24, i1 false)
  %7 = load ptr, ptr @SDL_event_watchers, align 8
  call void @SDL_UnlockMutex_REAL(ptr noundef %7)
  %8 = load ptr, ptr %3, align 8
  %9 = icmp ne ptr %8, null
  br i1 %9, label %10, label %14

10:                                               ; preds = %2
  %11 = getelementptr inbounds nuw %struct.SDL_EventWatcher, ptr %5, i32 0, i32 0
  %12 = load ptr, ptr %11, align 8
  %13 = load ptr, ptr %3, align 8
  store ptr %12, ptr %13, align 8
  br label %14

14:                                               ; preds = %10, %2
  %15 = load ptr, ptr %4, align 8
  %16 = icmp ne ptr %15, null
  br i1 %16, label %17, label %21

17:                                               ; preds = %14
  %18 = getelementptr inbounds nuw %struct.SDL_EventWatcher, ptr %5, i32 0, i32 1
  %19 = load ptr, ptr %18, align 8
  %20 = load ptr, ptr %4, align 8
  store ptr %19, ptr %20, align 8
  br label %21

21:                                               ; preds = %17, %14
  %22 = getelementptr inbounds nuw %struct.SDL_EventWatcher, ptr %5, i32 0, i32 0
  %23 = load ptr, ptr %22, align 8
  %24 = icmp ne ptr %23, null
  %25 = select i1 %24, i32 1, i32 0
  %26 = icmp ne i32 %25, 0
  call void @llvm.lifetime.end.p0(i64 24, ptr %5) #5
  ret i1 %26
}