; Function Attrs: nounwind uwtable
define hidden zeroext i1 @SDL_GetEventFilter_REAL(ptr noundef writeonly captures(address_is_null) %0, ptr noundef writeonly captures(address_is_null) %1) local_unnamed_addr #0 {
  %3 = load ptr, ptr @SDL_event_watchers, align 8
  tail call void @SDL_LockMutex_REAL(ptr noundef %3) #8
  %.sroa.0.0.copyload = load ptr, ptr getelementptr inbounds nuw (i8, ptr @SDL_event_watchers, i64 8), align 8
  %.sroa.5.0.copyload = load ptr, ptr getelementptr inbounds nuw (i8, ptr @SDL_event_watchers, i64 16), align 8
  %4 = load ptr, ptr @SDL_event_watchers, align 8
  tail call void @SDL_UnlockMutex_REAL(ptr noundef %4) #8
  %.not = icmp eq ptr %0, null
  br i1 %.not, label %6, label %5

5:                                                ; preds = %2
  store ptr %.sroa.0.0.copyload, ptr %0, align 8
  br label %6

6:                                                ; preds = %5, %2
  %.not6 = icmp eq ptr %1, null
  br i1 %.not6, label %8, label %7

7:                                                ; preds = %6
  store ptr %.sroa.5.0.copyload, ptr %1, align 8
  br label %8

8:                                                ; preds = %7, %6
  %9 = icmp ne ptr %.sroa.0.0.copyload, null
  ret i1 %9
}